target datalayout = "e-m:e-p270:32:32-p271:32:32-p272:64:64-i64:64-i128:128-f80:128-n8:16:32:64-S128"
target triple = "x86_64-pc-linux-gnu"

%struct._DtBauhausWidget = type { %struct._GtkDrawingArea, i32, ptr, ptr, i32, [256 x i8], i32, ptr, i32, ptr, ptr, i32, ptr, i32, i32, i32, %struct._GtkBorder, %struct._GtkBorder, i32, %union.dt_bauhaus_data_t }
%struct._GtkDrawingArea = type { %struct._GtkWidget, ptr }
%struct._GtkWidget = type { %struct._GObject, ptr }
%struct._GObject = type { %struct._GTypeInstance, i32, ptr }
%struct._GTypeInstance = type { ptr }
%struct._GtkBorder = type { i16, i16, i16, i16 }
%union.dt_bauhaus_data_t = type { %struct.dt_bauhaus_slider_data_t }
%struct.dt_bauhaus_slider_data_t = type { float, float, float, float, float, float, float, float, float, float, i32, ptr, i32, ptr, i8, ptr, float, float, i8, i32, ptr }

@dt_bh_get_type.static_g_define_type_id = internal global i64 0, align 8
@.str.52 = private unnamed_addr constant [3 x i8] c"\C2\B0\00", align 1

; Function Attrs: nounwind uwtable
define i64 @dt_bh_get_type() #0 {
  %1 = alloca i32, align 4
  %2 = alloca i64, align 8
  %3 = alloca ptr, align 8
  %4 = alloca i64, align 8
  %5 = alloca i64, align 8
  call void @llvm.lifetime.start.p0(i64 8, ptr %2) #13
  call void @llvm.lifetime.start.p0(i64 8, ptr %3) #13
  store ptr @dt_bh_get_type.static_g_define_type_id, ptr %3, align 8, !tbaa !6
  %6 = load ptr, ptr %3, align 8, !tbaa !6
  %7 = load atomic i64, ptr %6 seq_cst, align 8
  store i64 %7, ptr %2, align 8
  %8 = load i64, ptr %2, align 8, !tbaa !11
  store i64 %8, ptr %4, align 8, !tbaa !11
  call void @llvm.lifetime.end.p0(i64 8, ptr %3) #13
  call void @llvm.lifetime.end.p0(i64 8, ptr %2) #13
  %9 = load i64, ptr %4, align 8, !tbaa !11
  %10 = icmp ne i64 %9, 0
  br i1 %10, label %14, label %11

11:                                               ; preds = %0
  %12 = call i32 @g_once_init_enter(ptr noundef @dt_bh_get_type.static_g_define_type_id)
  %13 = icmp ne i32 %12, 0
  br label %14

14:                                               ; preds = %11, %0
  %15 = phi i1 [ false, %0 ], [ %13, %11 ]
  %16 = zext i1 %15 to i32
  store i32 %16, ptr %1, align 4, !tbaa !13
  %17 = load i32, ptr %1, align 4, !tbaa !13
  %18 = icmp ne i32 %17, 0
  br i1 %18, label %19, label %22

19:                                               ; preds = %14
  call void @llvm.lifetime.start.p0(i64 8, ptr %5) #13
  %20 = call i64 @dt_bh_get_type_once()
  store i64 %20, ptr %5, align 8, !tbaa !11
  %21 = load i64, ptr %5, align 8, !tbaa !11
  call void @g_once_init_leave(ptr noundef @dt_bh_get_type.static_g_define_type_id, i64 noundef %21)
  call void @llvm.lifetime.end.p0(i64 8, ptr %5) #13
  br label %22

22:                                               ; preds = %19, %14
  %23 = load i64, ptr @dt_bh_get_type.static_g_define_type_id, align 8, !tbaa !11
  ret i64 %23
}

; Function Attrs: inlinehint nounwind uwtable
define internal ptr @DT_BAUHAUS_WIDGET(ptr noundef %0) #4 {
  %2 = alloca ptr, align 8
  store ptr %0, ptr %2, align 8, !tbaa !32
  %3 = load ptr, ptr %2, align 8, !tbaa !32
  %4 = call i64 @dt_bh_get_type()
  %5 = call ptr @g_type_check_instance_cast(ptr noundef %3, i64 noundef %4)
  ret ptr %5
}

; Function Attrs: inlinehint nounwind uwtable
define internal i32 @dt_isnan(float noundef %0) #4 {
  %2 = alloca float, align 4
  store float %0, ptr %2, align 4, !tbaa !130
  %3 = load float, ptr %2, align 4, !tbaa !130
  %4 = call i1 @llvm.is.fpclass.f32(float %3, i32 3)
  %5 = zext i1 %4 to i32
  ret i32 %5
}

; Function Attrs: nounwind uwtable
define void @dt_bauhaus_slider_set(ptr noundef %0, float noundef %1) #0 {
  %3 = alloca ptr, align 8
  %4 = alloca float, align 4
  %5 = alloca ptr, align 8
  %6 = alloca i32, align 4
  %7 = alloca ptr, align 8
  %8 = alloca float, align 4
  %9 = alloca float, align 4
  %10 = alloca float, align 4
  store ptr %0, ptr %3, align 8, !tbaa !15
  store float %1, ptr %4, align 4, !tbaa !130
  %11 = load float, ptr %4, align 4, !tbaa !130
  %12 = call i32 @dt_isnan(float noundef %11)
  %13 = icmp ne i32 %12, 0
  br i1 %13, label %14, label %15

14:                                               ; preds = %2
  br label %158

15:                                               ; preds = %2
  call void @llvm.lifetime.start.p0(i64 8, ptr %5) #13
  %16 = load ptr, ptr %3, align 8, !tbaa !15
  %17 = call ptr @DT_BAUHAUS_WIDGET(ptr noundef %16)
  store ptr %17, ptr %5, align 8, !tbaa !17
  %18 = load ptr, ptr %5, align 8, !tbaa !17
  %19 = getelementptr inbounds nuw %struct._DtBauhausWidget, ptr %18, i32 0, i32 1
  %20 = load i32, ptr %19, align 8, !tbaa !139
  %21 = icmp ne i32 %20, 1
  br i1 %21, label %22, label %23

22:                                               ; preds = %15
  store i32 1, ptr %6, align 4
  br label %156

23:                                               ; preds = %15
  call void @llvm.lifetime.start.p0(i64 8, ptr %7) #13
  %24 = load ptr, ptr %5, align 8, !tbaa !17
  %25 = getelementptr inbounds nuw %struct._DtBauhausWidget, ptr %24, i32 0, i32 19
  store ptr %25, ptr %7, align 8, !tbaa !140
  call void @llvm.lifetime.start.p0(i64 4, ptr %8) #13
  %26 = load float, ptr %4, align 4, !tbaa !130
  %27 = load ptr, ptr %7, align 8, !tbaa !140
  %28 = getelementptr inbounds nuw %struct.dt_bauhaus_slider_data_t, ptr %27, i32 0, i32 9
  %29 = load float, ptr %28, align 4, !tbaa !208
  %30 = fcmp reassoc nsz arcp contract afn ogt float %26, %29
  br i1 %30, label %31, label %35

31:                                               ; preds = %23
  %32 = load ptr, ptr %7, align 8, !tbaa !140
  %33 = getelementptr inbounds nuw %struct.dt_bauhaus_slider_data_t, ptr %32, i32 0, i32 9
  %34 = load float, ptr %33, align 4, !tbaa !208
  br label %49

35:                                               ; preds = %23
  %36 = load float, ptr %4, align 4, !tbaa !130
  %37 = load ptr, ptr %7, align 8, !tbaa !140
  %38 = getelementptr inbounds nuw %struct.dt_bauhaus_slider_data_t, ptr %37, i32 0, i32 8
  %39 = load float, ptr %38, align 8, !tbaa !206
  %40 = fcmp reassoc nsz arcp contract afn olt float %36, %39
  br i1 %40, label %41, label %45

41:                                               ; preds = %35
  %42 = load ptr, ptr %7, align 8, !tbaa !140
  %43 = getelementptr inbounds nuw %struct.dt_bauhaus_slider_data_t, ptr %42, i32 0, i32 8
  %44 = load float, ptr %43, align 8, !tbaa !206
  br label %47

45:                                               ; preds = %35
  %46 = load float, ptr %4, align 4, !tbaa !130
  br label %47

47:                                               ; preds = %45, %41
  %48 = phi reassoc nsz arcp contract afn float [ %44, %41 ], [ %46, %45 ]
  br label %49

49:                                               ; preds = %47, %31
  %50 = phi reassoc nsz arcp contract afn float [ %34, %31 ], [ %48, %47 ]
  store float %50, ptr %8, align 4, !tbaa !130
  call void @llvm.lifetime.start.p0(i64 4, ptr %9) #13
  %51 = load float, ptr %8, align 4, !tbaa !130
  %52 = load float, ptr %4, align 4, !tbaa !130
  %53 = fcmp reassoc nsz arcp contract afn oeq float %51, %52
  br i1 %53, label %60, label %54

54:                                               ; preds = %49
  %55 = load ptr, ptr %7, align 8, !tbaa !140
  %56 = getelementptr inbounds nuw %struct.dt_bauhaus_slider_data_t, ptr %55, i32 0, i32 15
  %57 = load ptr, ptr %56, align 8, !tbaa !212
  %58 = call i32 @strcmp(ptr noundef %57, ptr noundef @.str.52) #16
  %59 = icmp ne i32 %58, 0
  br i1 %59, label %60, label %62

60:                                               ; preds = %54, %49
  %61 = load float, ptr %8, align 4, !tbaa !130
  br label %85

62:                                               ; preds = %54
  %63 = load ptr, ptr %7, align 8, !tbaa !140
  %64 = getelementptr inbounds nuw %struct.dt_bauhaus_slider_data_t, ptr %63, i32 0, i32 8
  %65 = load float, ptr %64, align 8, !tbaa !206
  %66 = load float, ptr %4, align 4, !tbaa !130
  %67 = load ptr, ptr %7, align 8, !tbaa !140
  %68 = getelementptr inbounds nuw %struct.dt_bauhaus_slider_data_t, ptr %67, i32 0, i32 9
  %69 = load float, ptr %68, align 4, !tbaa !208
  %70 = fadd reassoc nsz arcp contract afn float %66, %69
  %71 = load ptr, ptr %7, align 8, !tbaa !140
  %72 = getelementptr inbounds nuw %struct.dt_bauhaus_slider_data_t, ptr %71, i32 0, i32 8
  %73 = load float, ptr %72, align 8, !tbaa !206
  %74 = fmul reassoc nsz arcp contract afn float 2.000000e+00, %73
  %75 = fsub reassoc nsz arcp contract afn float %70, %74
  %76 = load ptr, ptr %7, align 8, !tbaa !140
  %77 = getelementptr inbounds nuw %struct.dt_bauhaus_slider_data_t, ptr %76, i32 0, i32 9
  %78 = load float, ptr %77, align 4, !tbaa !208
  %79 = load ptr, ptr %7, align 8, !tbaa !140
  %80 = getelementptr inbounds nuw %struct.dt_bauhaus_slider_data_t, ptr %79, i32 0, i32 8
  %81 = load float, ptr %80, align 8, !tbaa !206
  %82 = fsub reassoc nsz arcp contract afn float %78, %81
  %83 = frem reassoc nsz arcp contract afn float %75, %82
  %84 = fadd reassoc nsz arcp contract afn float %65, %83
  br label %85

85:                                               ; preds = %62, %60
  %86 = phi reassoc nsz arcp contract afn float [ %61, %60 ], [ %84, %62 ]
  store float %86, ptr %9, align 4, !tbaa !130
  %87 = load float, ptr %9, align 4, !tbaa !130
  %88 = load float, ptr %8, align 4, !tbaa !130
  %89 = fcmp reassoc nsz arcp contract afn oeq float %87, %88
  br i1 %89, label %90, label %104

90:                                               ; preds = %85
  %91 = load ptr, ptr %7, align 8, !tbaa !140
  %92 = getelementptr inbounds nuw %struct.dt_bauhaus_slider_data_t, ptr %91, i32 0, i32 4
  %93 = load float, ptr %92, align 8, !tbaa !148
  %94 = load float, ptr %8, align 4, !tbaa !130
  %95 = fcmp reassoc nsz arcp contract afn olt float %93, %94
  br i1 %95, label %96, label %100

96:                                               ; preds = %90
  %97 = load ptr, ptr %7, align 8, !tbaa !140
  %98 = getelementptr inbounds nuw %struct.dt_bauhaus_slider_data_t, ptr %97, i32 0, i32 4
  %99 = load float, ptr %98, align 8, !tbaa !148
  br label %102

100:                                              ; preds = %90
  %101 = load float, ptr %8, align 4, !tbaa !130
  br label %102

102:                                              ; preds = %100, %96
  %103 = phi reassoc nsz arcp contract afn float [ %99, %96 ], [ %101, %100 ]
  br label %108

104:                                              ; preds = %85
  %105 = load ptr, ptr %7, align 8, !tbaa !140
  %106 = getelementptr inbounds nuw %struct.dt_bauhaus_slider_data_t, ptr %105, i32 0, i32 8
  %107 = load float, ptr %106, align 8, !tbaa !206
  br label %108

108:                                              ; preds = %104, %102
  %109 = phi reassoc nsz arcp contract afn float [ %103, %102 ], [ %107, %104 ]
  %110 = load ptr, ptr %7, align 8, !tbaa !140
  %111 = getelementptr inbounds nuw %struct.dt_bauhaus_slider_data_t, ptr %110, i32 0, i32 4
  store float %109, ptr %111, align 8, !tbaa !148
  %112 = load float, ptr %9, align 4, !tbaa !130
  %113 = load float, ptr %8, align 4, !tbaa !130
  %114 = fcmp reassoc nsz arcp contract afn oeq float %112, %113
  br i1 %114, label %115, label %129

115:                                              ; preds = %108
  %116 = load ptr, ptr %7, align 8, !tbaa !140
  %117 = getelementptr inbounds nuw %struct.dt_bauhaus_slider_data_t, ptr %116, i32 0, i32 5
  %118 = load float, ptr %117, align 4, !tbaa !147
  %119 = load float, ptr %8, align 4, !tbaa !130
  %120 = fcmp reassoc nsz arcp contract afn ogt float %118, %119
  br i1 %120, label %121, label %125

121:                                              ; preds = %115
  %122 = load ptr, ptr %7, align 8, !tbaa !140
  %123 = getelementptr inbounds nuw %struct.dt_bauhaus_slider_data_t, ptr %122, i32 0, i32 5
  %124 = load float, ptr %123, align 4, !tbaa !147
  br label %127

125:                                              ; preds = %115
  %126 = load float, ptr %8, align 4, !tbaa !130
  br label %127

127:                                              ; preds = %125, %121
  %128 = phi reassoc nsz arcp contract afn float [ %124, %121 ], [ %126, %125 ]
  br label %133

129:                                              ; preds = %108
  %130 = load ptr, ptr %7, align 8, !tbaa !140
  %131 = getelementptr inbounds nuw %struct.dt_bauhaus_slider_data_t, ptr %130, i32 0, i32 9
  %132 = load float, ptr %131, align 4, !tbaa !208
  br label %133

133:                                              ; preds = %129, %127
  %134 = phi reassoc nsz arcp contract afn float [ %128, %127 ], [ %132, %129 ]
  %135 = load ptr, ptr %7, align 8, !tbaa !140
  %136 = getelementptr inbounds nuw %struct.dt_bauhaus_slider_data_t, ptr %135, i32 0, i32 5
  store float %134, ptr %136, align 4, !tbaa !147
  call void @llvm.lifetime.start.p0(i64 4, ptr %10) #13
  %137 = load float, ptr %9, align 4, !tbaa !130
  %138 = load ptr, ptr %7, align 8, !tbaa !140
  %139 = getelementptr inbounds nuw %struct.dt_bauhaus_slider_data_t, ptr %138, i32 0, i32 4
  %140 = load float, ptr %139, align 8, !tbaa !148
  %141 = fsub reassoc nsz arcp contract afn float %137, %140
  %142 = load ptr, ptr %7, align 8, !tbaa !140
  %143 = getelementptr inbounds nuw %struct.dt_bauhaus_slider_data_t, ptr %142, i32 0, i32 5
  %144 = load float, ptr %143, align 4, !tbaa !147
  %145 = load ptr, ptr %7, align 8, !tbaa !140
  %146 = getelementptr inbounds nuw %struct.dt_bauhaus_slider_data_t, ptr %145, i32 0, i32 4
  %147 = load float, ptr %146, align 8, !tbaa !148
  %148 = fsub reassoc nsz arcp contract afn float %144, %147
  %149 = fdiv reassoc nsz arcp contract afn float %141, %148
  store float %149, ptr %10, align 4, !tbaa !130
  %150 = load ptr, ptr %5, align 8, !tbaa !17
  %151 = load ptr, ptr %7, align 8, !tbaa !140
  %152 = getelementptr inbounds nuw %struct.dt_bauhaus_slider_data_t, ptr %151, i32 0, i32 20
  %153 = load ptr, ptr %152, align 8, !tbaa !209
  %154 = load float, ptr %10, align 4, !tbaa !130
  %155 = call reassoc nsz arcp contract afn float %153(float noundef %154, i32 noundef 1)
  call void @_slider_set_normalized(ptr noundef %150, float noundef %155)
  call void @llvm.lifetime.end.p0(i64 4, ptr %10) #13
  call void @llvm.lifetime.end.p0(i64 4, ptr %9) #13
  call void @llvm.lifetime.end.p0(i64 4, ptr %8) #13
  call void @llvm.lifetime.end.p0(i64 8, ptr %7) #13
  store i32 0, ptr %6, align 4
  br label %156

156:                                              ; preds = %133, %22
  call void @llvm.lifetime.end.p0(i64 8, ptr %5) #13
  %157 = load i32, ptr %6, align 4
  switch i32 %157, label %159 [
    i32 0, label %158
    i32 1, label %158
  ]

158:                                              ; preds = %14, %156, %156
  ret void

159:                                              ; preds = %156
  unreachable
}