; Function Attrs: nounwind uwtable
define void @dt_bauhaus_slider_set(ptr noundef %0, float noundef %1) local_unnamed_addr #0 {
  %3 = fcmp ord float %1, 0.000000e+00
  br i1 %3, label %4, label %63

4:                                                ; preds = %2
  %5 = load atomic i64, ptr @dt_bh_get_type.static_g_define_type_id seq_cst, align 8
  %.not.i.i = icmp eq i64 %5, 0
  br i1 %.not.i.i, label %6, label %DT_BAUHAUS_WIDGET.exit

6:                                                ; preds = %4
  %7 = tail call i32 @g_once_init_enter(ptr noundef nonnull @dt_bh_get_type.static_g_define_type_id) #19
  %.not4.i.i = icmp eq i32 %7, 0
  br i1 %.not4.i.i, label %DT_BAUHAUS_WIDGET.exit, label %8

8:                                                ; preds = %6
  %9 = tail call fastcc i64 @dt_bh_get_type_once()
  tail call void @g_once_init_leave(ptr noundef nonnull @dt_bh_get_type.static_g_define_type_id, i64 noundef %9) #19
  br label %DT_BAUHAUS_WIDGET.exit

DT_BAUHAUS_WIDGET.exit:                           ; preds = %4, %6, %8
  %10 = load i64, ptr @dt_bh_get_type.static_g_define_type_id, align 8, !tbaa !6
  %11 = tail call ptr @g_type_check_instance_cast(ptr noundef %0, i64 noundef %10) #19
  %12 = getelementptr inbounds nuw i8, ptr %11, i64 40
  %13 = load i32, ptr %12, align 8, !tbaa !105
  %.not49 = icmp eq i32 %13, 1
  br i1 %.not49, label %14, label %63

14:                                               ; preds = %DT_BAUHAUS_WIDGET.exit
  %15 = getelementptr inbounds nuw i8, ptr %11, i64 444
  %16 = load float, ptr %15, align 4, !tbaa !172
  %17 = fcmp reassoc nsz arcp contract afn ogt float %1, %16
  br i1 %17, label %22, label %18

18:                                               ; preds = %14
  %19 = getelementptr inbounds nuw i8, ptr %11, i64 440
  %20 = load float, ptr %19, align 8, !tbaa !170
  %21 = fcmp reassoc nsz arcp contract afn olt float %1, %20
  %. = select reassoc nsz arcp contract afn i1 %21, float %20, float %1
  br label %22

22:                                               ; preds = %18, %14
  %23 = phi reassoc nsz arcp contract afn float [ %16, %14 ], [ %., %18 ]
  %24 = fcmp reassoc nsz arcp contract afn oeq float %23, %1
  br i1 %24, label %.tail.thread, label %sub_0

sub_0:                                            ; preds = %22
  %25 = getelementptr inbounds nuw i8, ptr %11, i64 488
  %26 = load ptr, ptr %25, align 8, !tbaa !174
  %27 = load i8, ptr %26, align 1
  %.not = icmp eq i8 %27, -62
  br i1 %.not, label %sub_1, label %.tail.thread

sub_1:                                            ; preds = %sub_0
  %28 = getelementptr inbounds nuw i8, ptr %26, i64 1
  %29 = load i8, ptr %28, align 1
  %.not53 = icmp eq i8 %29, -80
  br i1 %.not53, label %.tail, label %.tail.thread

.tail:                                            ; preds = %sub_1
  %30 = getelementptr inbounds nuw i8, ptr %26, i64 2
  %31 = load i8, ptr %30, align 1
  %32 = icmp eq i8 %31, 0
  br i1 %32, label %33, label %.tail.thread

33:                                               ; preds = %.tail
  %34 = getelementptr inbounds nuw i8, ptr %11, i64 440
  %35 = load float, ptr %34, align 8, !tbaa !170
  %36 = fadd reassoc nsz arcp contract afn float %16, %1
  %.neg = fmul reassoc nsz arcp contract afn float %35, -2.000000e+00
  %37 = fadd reassoc nsz arcp contract afn float %36, %.neg
  %38 = fsub reassoc nsz arcp contract afn float %16, %35
  %39 = frem reassoc nsz arcp contract afn float %37, %38
  %40 = fadd reassoc nsz arcp contract afn float %39, %35
  br label %.tail.thread

.tail.thread:                                     ; preds = %sub_1, %sub_0, %22, %.tail, %33
  %41 = phi reassoc nsz arcp contract afn float [ %40, %33 ], [ %23, %.tail ], [ %23, %22 ], [ %23, %sub_0 ], [ %23, %sub_1 ]
  %42 = fcmp reassoc nsz arcp contract afn oeq float %41, %23
  br i1 %42, label %43, label %50

43:                                               ; preds = %.tail.thread
  %44 = getelementptr inbounds nuw i8, ptr %11, i64 424
  %45 = load float, ptr %44, align 8, !tbaa !121
  %46 = fcmp reassoc nsz arcp contract afn olt float %45, %23
  %.51 = select reassoc nsz arcp contract afn i1 %46, float %45, float %23
  %47 = getelementptr inbounds nuw i8, ptr %11, i64 428
  %48 = load float, ptr %47, align 4, !tbaa !120
  %49 = fcmp reassoc nsz arcp contract afn ogt float %48, %23
  %.52 = select reassoc nsz arcp contract afn i1 %49, float %48, float %23
  br label %53

50:                                               ; preds = %.tail.thread
  %51 = getelementptr inbounds nuw i8, ptr %11, i64 440
  %52 = load float, ptr %51, align 8, !tbaa !170
  br label %53

53:                                               ; preds = %43, %50
  %.sink = phi float [ %.51, %43 ], [ %52, %50 ]
  %54 = phi reassoc nsz arcp contract afn float [ %.52, %43 ], [ %16, %50 ]
  %55 = getelementptr inbounds nuw i8, ptr %11, i64 424
  store float %.sink, ptr %55, align 8, !tbaa !121
  %56 = getelementptr inbounds nuw i8, ptr %11, i64 428
  store float %54, ptr %56, align 4, !tbaa !120
  %57 = fsub reassoc nsz arcp contract afn float %41, %.sink
  %58 = fsub reassoc nsz arcp contract afn float %54, %.sink
  %59 = fdiv reassoc nsz arcp contract afn float %57, %58
  %60 = getelementptr inbounds nuw i8, ptr %11, i64 512
  %61 = load ptr, ptr %60, align 8, !tbaa !142
  %62 = tail call reassoc nsz arcp contract afn float %61(float noundef %59, i32 noundef 1) #19
  tail call fastcc void @_slider_set_normalized(ptr noundef nonnull %11, float noundef %62)
  br label %63

63:                                               ; preds = %53, %DT_BAUHAUS_WIDGET.exit, %2
  ret void
}